(lp0
(S'star'
p1
(lp2
(I6
I31
tp3
a(I5
I29
tp4
a(I3
I26
tp5
a(I2
I25
tp6
a(I2
I22
tp7
a(I3
I21
tp8
a(I7
I20
tp9
a(I12
I20
tp10
a(I15
I19
tp11
a(I17
I18
tp12
a(I19
I16
tp13
a(I19
I13
tp14
a(I20
I12
tp15
a(I22
I9
tp16
a(I22
I7
tp17
a(I23
I4
tp18
a(I24
I1
tp19
a(I26
I0
tp20
a(I27
I2
tp21
a(I29
I6
tp22
a(I30
I9
tp23
a(I31
I11
tp24
a(I32
I15
tp25
a(I33
I18
tp26
a(I35
I19
tp27
a(I37
I19
tp28
a(I40
I20
tp29
a(I44
I21
tp30
a(I45
I21
tp31
a(I48
I22
tp32
a(I49
I25
tp33
a(I47
I28
tp34
a(I46
I30
tp35
a(I44
I32
tp36
a(I42
I34
tp37
a(I39
I39
tp38
a(I39
I43
tp39
a(I39
I45
tp40
a(I39
I47
tp41
a(I39
I50
tp42
a(I40
I52
tp43
a(I40
I55
tp44
a(I40
I57
tp45
a(I41
I64
tp46
a(I39
I61
tp47
a(I38
I61
tp48
a(I36
I59
tp49
a(I32
I57
tp50
a(I30
I55
tp51
a(I26
I52
tp52
a(I22
I54
tp53
a(I22
I55
tp54
a(I18
I57
tp55
a(I16
I58
tp56
a(I15
I59
tp57
a(I10
I61
tp58
a(I10
I59
tp59
a(I11
I55
tp60
a(I11
I52
tp61
a(I11
I50
tp62
a(I12
I42
tp63
a(I12
I40
tp64
a(I10
I37
tp65
a(I9
I34
tp66
atp67
a(S'tri'
p68
(lp69
(I19
I28
tp70
a(I22
I26
tp71
a(I24
I25
tp72
a(I27
I22
tp73
a(I28
I22
tp74
a(I33
I20
tp75
a(I35
I17
tp76
a(I36
I17
tp77
a(I39
I14
tp78
a(I41
I14
tp79
a(I44
I11
tp80
a(I47
I9
tp81
a(I48
I9
tp82
a(I50
I7
tp83
a(I53
I6
tp84
a(I55
I4
tp85
a(I60
I0
tp86
a(I60
I1
tp87
a(I64
I1
tp88
a(I64
I4
tp89
a(I64
I6
tp90
a(I64
I9
tp91
a(I64
I10
tp92
a(I64
I13
tp93
a(I64
I16
tp94
a(I64
I18
tp95
a(I64
I20
tp96
a(I64
I25
tp97
a(I64
I28
tp98
a(I64
I30
tp99
a(I64
I33
tp100
a(I64
I36
tp101
a(I64
I39
tp102
a(I64
I41
tp103
a(I64
I43
tp104
a(I64
I49
tp105
a(I64
I55
tp106
a(I62
I57
tp107
a(I55
I55
tp108
a(I53
I55
tp109
a(I51
I54
tp110
a(I46
I53
tp111
a(I43
I53
tp112
a(I41
I52
tp113
a(I39
I51
tp114
a(I35
I51
tp115
a(I32
I50
tp116
a(I28
I49
tp117
a(I25
I49
tp118
a(I22
I48
tp119
a(I19
I47
tp120
a(I16
I47
tp121
a(I12
I46
tp122
a(I8
I45
tp123
a(I6
I44
tp124
a(I1
I43
tp125
a(I0
I42
tp126
a(I4
I39
tp127
a(I2
I39
tp128
a(I6
I37
tp129
a(I10
I35
tp130
a(I11
I33
tp131
a(I14
I31
tp132
a(I18
I29
tp133
atp134
a(S'circle'
p135
(lp136
(I0
I31
tp137
a(I0
I30
tp138
a(I0
I28
tp139
a(I0
I25
tp140
a(I2
I18
tp141
a(I3
I18
tp142
a(I3
I14
tp143
a(I4
I14
tp144
a(I5
I12
tp145
a(I6
I11
tp146
a(I11
I6
tp147
a(I11
I5
tp148
a(I14
I3
tp149
a(I16
I2
tp150
a(I20
I0
tp151
a(I20
I0
tp152
a(I27
I0
tp153
a(I29
I0
tp154
a(I33
I0
tp155
a(I33
I0
tp156
a(I37
I2
tp157
a(I38
I3
tp158
a(I40
I4
tp159
a(I43
I6
tp160
a(I47
I10
tp161
a(I50
I15
tp162
a(I52
I20
tp163
a(I52
I21
tp164
a(I53
I23
tp165
a(I53
I24
tp166
a(I53
I27
tp167
a(I53
I30
tp168
a(I54
I30
tp169
a(I54
I32
tp170
a(I53
I36
tp171
a(I53
I38
tp172
a(I53
I42
tp173
a(I52
I43
tp174
a(I50
I47
tp175
a(I49
I49
tp176
a(I47
I52
tp177
a(I45
I54
tp178
a(I43
I56
tp179
a(I43
I57
tp180
a(I40
I59
tp181
a(I38
I60
tp182
a(I33
I62
tp183
a(I33
I63
tp184
a(I29
I63
tp185
a(I26
I64
tp186
a(I21
I63
tp187
a(I21
I62
tp188
a(I15
I60
tp189
a(I13
I59
tp190
a(I8
I55
tp191
a(I7
I54
tp192
a(I6
I53
tp193
a(I4
I50
tp194
a(I3
I47
tp195
a(I3
I47
tp196
a(I2
I45
tp197
a(I1
I40
tp198
a(I0
I38
tp199
a(I0
I37
tp200
atp201
a(S'rect'
p202
(lp203
(I0
I31
tp204
a(I0
I29
tp205
a(I0
I26
tp206
a(I0
I22
tp207
a(I0
I19
tp208
a(I0
I16
tp209
a(I0
I9
tp210
a(I0
I7
tp211
a(I0
I3
tp212
a(I0
I1
tp213
a(I1
I0
tp214
a(I5
I0
tp215
a(I8
I0
tp216
a(I10
I0
tp217
a(I17
I0
tp218
a(I21
I0
tp219
a(I25
I0
tp220
a(I27
I0
tp221
a(I31
I0
tp222
a(I35
I0
tp223
a(I38
I0
tp224
a(I44
I0
tp225
a(I48
I0
tp226
a(I49
I2
tp227
a(I49
I6
tp228
a(I49
I7
tp229
a(I49
I11
tp230
a(I49
I14
tp231
a(I49
I18
tp232
a(I49
I21
tp233
a(I49
I25
tp234
a(I49
I28
tp235
a(I49
I32
tp236
a(I49
I34
tp237
a(I49
I37
tp238
a(I49
I41
tp239
a(I49
I44
tp240
a(I49
I47
tp241
a(I49
I54
tp242
a(I49
I56
tp243
a(I49
I60
tp244
a(I49
I62
tp245
a(I48
I64
tp246
a(I44
I64
tp247
a(I41
I64
tp248
a(I37
I64
tp249
a(I34
I64
tp250
a(I32
I64
tp251
a(I25
I64
tp252
a(I21
I64
tp253
a(I18
I64
tp254
a(I15
I64
tp255
a(I11
I64
tp256
a(I8
I64
tp257
a(I4
I64
tp258
a(I0
I64
tp259
a(I0
I60
tp260
a(I0
I59
tp261
a(I0
I54
tp262
a(I0
I49
tp263
a(I0
I45
tp264
a(I0
I42
tp265
a(I0
I38
tp266
a(I0
I35
tp267
atp268
a(S'rect2'
p269
(lp270
(I0
I31
tp271
a(I0
I28
tp272
a(I0
I25
tp273
a(I0
I22
tp274
a(I0
I18
tp275
a(I0
I14
tp276
a(I0
I12
tp277
a(I0
I7
tp278
a(I0
I4
tp279
a(I0
I0
tp280
a(I2
I0
tp281
a(I6
I0
tp282
a(I9
I0
tp283
a(I13
I0
tp284
a(I16
I0
tp285
a(I18
I0
tp286
a(I21
I0
tp287
a(I25
I0
tp288
a(I28
I0
tp289
a(I32
I0
tp290
a(I33
I0
tp291
a(I40
I0
tp292
a(I42
I0
tp293
a(I46
I0
tp294
a(I49
I0
tp295
a(I49
I1
tp296
a(I49
I5
tp297
a(I49
I8
tp298
a(I49
I12
tp299
a(I49
I15
tp300
a(I49
I17
tp301
a(I49
I21
tp302
a(I49
I22
tp303
a(I49
I29
tp304
a(I49
I33
tp305
a(I49
I35
tp306
a(I49
I37
tp307
a(I49
I40
tp308
a(I49
I47
tp309
a(I49
I49
tp310
a(I49
I50
tp311
a(I49
I59
tp312
a(I49
I64
tp313
a(I44
I64
tp314
a(I42
I64
tp315
a(I38
I64
tp316
a(I32
I64
tp317
a(I28
I64
tp318
a(I21
I64
tp319
a(I17
I64
tp320
a(I14
I64
tp321
a(I9
I64
tp322
a(I7
I64
tp323
a(I3
I64
tp324
a(I0
I64
tp325
a(I0
I62
tp326
a(I0
I58
tp327
a(I0
I55
tp328
a(I0
I51
tp329
a(I0
I48
tp330
a(I0
I46
tp331
a(I0
I42
tp332
a(I0
I40
tp333
a(I0
I33
tp334
atp335
a.